target datalayout = "e-m:e-p270:32:32-p271:32:32-p272:64:64-i64:64-i128:128-f80:128-n8:16:32:64-S128"
target triple = "x86_64-pc-linux-gnu"

%struct.AVFilterContext = type { ptr, ptr, ptr, ptr, ptr, i32, ptr, ptr, i32, ptr, ptr, i32, i32, ptr, ptr, ptr, ptr, i32, ptr, i32, i32 }
%struct.ChorusContext = type { ptr, float, float, ptr, ptr, ptr, ptr, ptr, ptr, ptr, ptr, ptr, ptr, ptr, ptr, ptr, i32, i32, i32, i32, i32, i64 }
%struct.AVRational = type { i32, i32 }
%struct.AVFilterLink = type { ptr, ptr, ptr, ptr, i32, i32, i32, i32, %struct.AVRational, i32, i32, i32, %struct.AVChannelLayout, %struct.AVRational, ptr, i32, %struct.AVFilterFormatsConfig, %struct.AVFilterFormatsConfig }
%struct.AVChannelLayout = type { i32, i32, %union.anon.1, ptr }
%union.anon.1 = type { i64 }
%struct.AVFilterFormatsConfig = type { ptr, ptr, ptr, ptr, ptr }

@.str.3 = private unnamed_addr constant [56 x i8] c"output gain can cause saturation or clipping of output\0A\00", align 1

; Function Attrs: nounwind uwtable
define internal i32 @config_output(ptr noundef %0) #1 {
  %2 = alloca i32, align 4
  %3 = alloca ptr, align 8
  %4 = alloca ptr, align 8
  %5 = alloca ptr, align 8
  %6 = alloca float, align 4
  %7 = alloca i32, align 4
  %8 = alloca i32, align 4
  %9 = alloca i32, align 4
  %10 = alloca i32, align 4
  store ptr %0, ptr %3, align 8, !tbaa !50
  call void @llvm.lifetime.start.p0(i64 8, ptr %4) #7
  %11 = load ptr, ptr %3, align 8, !tbaa !50
  %12 = getelementptr inbounds nuw %struct.AVFilterLink, ptr %11, i32 0, i32 0
  %13 = load ptr, ptr %12, align 8, !tbaa !84
  store ptr %13, ptr %4, align 8, !tbaa !4
  call void @llvm.lifetime.start.p0(i64 8, ptr %5) #7
  %14 = load ptr, ptr %4, align 8, !tbaa !4
  %15 = getelementptr inbounds nuw %struct.AVFilterContext, ptr %14, i32 0, i32 9
  %16 = load ptr, ptr %15, align 8, !tbaa !9
  store ptr %16, ptr %5, align 8, !tbaa !22
  call void @llvm.lifetime.start.p0(i64 4, ptr %6) #7
  store float 1.000000e+00, ptr %6, align 4, !tbaa !72
  call void @llvm.lifetime.start.p0(i64 4, ptr %7) #7
  %17 = load ptr, ptr %3, align 8, !tbaa !50
  %18 = getelementptr inbounds nuw %struct.AVFilterLink, ptr %17, i32 0, i32 12
  %19 = getelementptr inbounds nuw %struct.AVChannelLayout, ptr %18, i32 0, i32 1
  %20 = load i32, ptr %19, align 4, !tbaa !67
  %21 = load ptr, ptr %5, align 8, !tbaa !22
  %22 = getelementptr inbounds nuw %struct.ChorusContext, ptr %21, i32 0, i32 18
  store i32 %20, ptr %22, align 8, !tbaa !46
  store i32 0, ptr %7, align 4, !tbaa !36
  br label %23

23:                                               ; preds = %147, %1
  %24 = load i32, ptr %7, align 4, !tbaa !36
  %25 = load ptr, ptr %5, align 8, !tbaa !22
  %26 = getelementptr inbounds nuw %struct.ChorusContext, ptr %25, i32 0, i32 16
  %27 = load i32, ptr %26, align 8, !tbaa !40
  %28 = icmp slt i32 %24, %27
  br i1 %28, label %29, label %150

29:                                               ; preds = %23
  call void @llvm.lifetime.start.p0(i64 4, ptr %8) #7
  %30 = load ptr, ptr %5, align 8, !tbaa !22
  %31 = getelementptr inbounds nuw %struct.ChorusContext, ptr %30, i32 0, i32 7
  %32 = load ptr, ptr %31, align 8, !tbaa !35
  %33 = load i32, ptr %7, align 4, !tbaa !36
  %34 = sext i32 %33 to i64
  %35 = getelementptr inbounds float, ptr %32, i64 %34
  %36 = load float, ptr %35, align 4, !tbaa !72
  %37 = load ptr, ptr %5, align 8, !tbaa !22
  %38 = getelementptr inbounds nuw %struct.ChorusContext, ptr %37, i32 0, i32 10
  %39 = load ptr, ptr %38, align 8, !tbaa !39
  %40 = load i32, ptr %7, align 4, !tbaa !36
  %41 = sext i32 %40 to i64
  %42 = getelementptr inbounds float, ptr %39, i64 %41
  %43 = load float, ptr %42, align 4, !tbaa !72
  %44 = fadd nsz float %36, %43
  %45 = load ptr, ptr %3, align 8, !tbaa !50
  %46 = getelementptr inbounds nuw %struct.AVFilterLink, ptr %45, i32 0, i32 11
  %47 = load i32, ptr %46, align 8, !tbaa !82
  %48 = sitofp i32 %47 to float
  %49 = fmul nsz float %44, %48
  %50 = fpext nsz float %49 to double
  %51 = fdiv nsz double %50, 1.000000e+03
  %52 = fptosi double %51 to i32
  store i32 %52, ptr %8, align 4, !tbaa !36
  call void @llvm.lifetime.start.p0(i64 4, ptr %9) #7
  %53 = load ptr, ptr %5, align 8, !tbaa !22
  %54 = getelementptr inbounds nuw %struct.ChorusContext, ptr %53, i32 0, i32 10
  %55 = load ptr, ptr %54, align 8, !tbaa !39
  %56 = load i32, ptr %7, align 4, !tbaa !36
  %57 = sext i32 %56 to i64
  %58 = getelementptr inbounds float, ptr %55, i64 %57
  %59 = load float, ptr %58, align 4, !tbaa !72
  %60 = load ptr, ptr %3, align 8, !tbaa !50
  %61 = getelementptr inbounds nuw %struct.AVFilterLink, ptr %60, i32 0, i32 11
  %62 = load i32, ptr %61, align 8, !tbaa !82
  %63 = sitofp i32 %62 to float
  %64 = fmul nsz float %59, %63
  %65 = fpext nsz float %64 to double
  %66 = fdiv nsz double %65, 1.000000e+03
  %67 = fptosi double %66 to i32
  store i32 %67, ptr %9, align 4, !tbaa !36
  %68 = load ptr, ptr %3, align 8, !tbaa !50
  %69 = getelementptr inbounds nuw %struct.AVFilterLink, ptr %68, i32 0, i32 11
  %70 = load i32, ptr %69, align 8, !tbaa !82
  %71 = sitofp i32 %70 to float
  %72 = load ptr, ptr %5, align 8, !tbaa !22
  %73 = getelementptr inbounds nuw %struct.ChorusContext, ptr %72, i32 0, i32 9
  %74 = load ptr, ptr %73, align 8, !tbaa !38
  %75 = load i32, ptr %7, align 4, !tbaa !36
  %76 = sext i32 %75 to i64
  %77 = getelementptr inbounds float, ptr %74, i64 %76
  %78 = load float, ptr %77, align 4, !tbaa !72
  %79 = fdiv nsz float %71, %78
  %80 = fptosi float %79 to i32
  %81 = load ptr, ptr %5, align 8, !tbaa !22
  %82 = getelementptr inbounds nuw %struct.ChorusContext, ptr %81, i32 0, i32 13
  %83 = load ptr, ptr %82, align 8, !tbaa !41
  %84 = load i32, ptr %7, align 4, !tbaa !36
  %85 = sext i32 %84 to i64
  %86 = getelementptr inbounds i32, ptr %83, i64 %85
  store i32 %80, ptr %86, align 4, !tbaa !36
  %87 = load ptr, ptr %5, align 8, !tbaa !22
  %88 = getelementptr inbounds nuw %struct.ChorusContext, ptr %87, i32 0, i32 13
  %89 = load ptr, ptr %88, align 8, !tbaa !41
  %90 = load i32, ptr %7, align 4, !tbaa !36
  %91 = sext i32 %90 to i64
  %92 = getelementptr inbounds i32, ptr %89, i64 %91
  %93 = load i32, ptr %92, align 4, !tbaa !36
  %94 = sext i32 %93 to i64
  %95 = mul i64 4, %94
  %96 = call noalias ptr @av_malloc(i64 noundef %95)
  %97 = load ptr, ptr %5, align 8, !tbaa !22
  %98 = getelementptr inbounds nuw %struct.ChorusContext, ptr %97, i32 0, i32 14
  %99 = load ptr, ptr %98, align 8, !tbaa !42
  %100 = load i32, ptr %7, align 4, !tbaa !36
  %101 = sext i32 %100 to i64
  %102 = getelementptr inbounds ptr, ptr %99, i64 %101
  store ptr %96, ptr %102, align 8, !tbaa !71
  %103 = load ptr, ptr %5, align 8, !tbaa !22
  %104 = getelementptr inbounds nuw %struct.ChorusContext, ptr %103, i32 0, i32 14
  %105 = load ptr, ptr %104, align 8, !tbaa !42
  %106 = load i32, ptr %7, align 4, !tbaa !36
  %107 = sext i32 %106 to i64
  %108 = getelementptr inbounds ptr, ptr %105, i64 %107
  %109 = load ptr, ptr %108, align 8, !tbaa !71
  %110 = icmp ne ptr %109, null
  br i1 %110, label %112, label %111

111:                                              ; preds = %29
  store i32 -12, ptr %2, align 4
  store i32 1, ptr %10, align 4
  br label %144

112:                                              ; preds = %29
  %113 = load ptr, ptr %5, align 8, !tbaa !22
  %114 = getelementptr inbounds nuw %struct.ChorusContext, ptr %113, i32 0, i32 14
  %115 = load ptr, ptr %114, align 8, !tbaa !42
  %116 = load i32, ptr %7, align 4, !tbaa !36
  %117 = sext i32 %116 to i64
  %118 = getelementptr inbounds ptr, ptr %115, i64 %117
  %119 = load ptr, ptr %118, align 8, !tbaa !71
  %120 = load ptr, ptr %5, align 8, !tbaa !22
  %121 = getelementptr inbounds nuw %struct.ChorusContext, ptr %120, i32 0, i32 13
  %122 = load ptr, ptr %121, align 8, !tbaa !41
  %123 = load i32, ptr %7, align 4, !tbaa !36
  %124 = sext i32 %123 to i64
  %125 = getelementptr inbounds i32, ptr %122, i64 %124
  %126 = load i32, ptr %125, align 4, !tbaa !36
  %127 = load i32, ptr %9, align 4, !tbaa !36
  %128 = sitofp i32 %127 to double
  call void @ff_generate_wave_table(i32 noundef 0, i32 noundef 2, ptr noundef %119, i32 noundef %126, double noundef 0.000000e+00, double noundef %128, double noundef 0.000000e+00)
  %129 = load ptr, ptr %5, align 8, !tbaa !22
  %130 = getelementptr inbounds nuw %struct.ChorusContext, ptr %129, i32 0, i32 17
  %131 = load i32, ptr %130, align 4, !tbaa !74
  %132 = load i32, ptr %8, align 4, !tbaa !36
  %133 = icmp sgt i32 %131, %132
  br i1 %133, label %134, label %138

134:                                              ; preds = %112
  %135 = load ptr, ptr %5, align 8, !tbaa !22
  %136 = getelementptr inbounds nuw %struct.ChorusContext, ptr %135, i32 0, i32 17
  %137 = load i32, ptr %136, align 4, !tbaa !74
  br label %140

138:                                              ; preds = %112
  %139 = load i32, ptr %8, align 4, !tbaa !36
  br label %140

140:                                              ; preds = %138, %134
  %141 = phi i32 [ %137, %134 ], [ %139, %138 ]
  %142 = load ptr, ptr %5, align 8, !tbaa !22
  %143 = getelementptr inbounds nuw %struct.ChorusContext, ptr %142, i32 0, i32 17
  store i32 %141, ptr %143, align 4, !tbaa !74
  store i32 0, ptr %10, align 4
  br label %144

144:                                              ; preds = %140, %111
  call void @llvm.lifetime.end.p0(i64 4, ptr %9) #7
  call void @llvm.lifetime.end.p0(i64 4, ptr %8) #7
  %145 = load i32, ptr %10, align 4
  switch i32 %145, label %265 [
    i32 0, label %146
  ]

146:                                              ; preds = %144
  br label %147

147:                                              ; preds = %146
  %148 = load i32, ptr %7, align 4, !tbaa !36
  %149 = add nsw i32 %148, 1
  store i32 %149, ptr %7, align 4, !tbaa !36
  br label %23, !llvm.loop !89

150:                                              ; preds = %23
  store i32 0, ptr %7, align 4, !tbaa !36
  br label %151

151:                                              ; preds = %167, %150
  %152 = load i32, ptr %7, align 4, !tbaa !36
  %153 = load ptr, ptr %5, align 8, !tbaa !22
  %154 = getelementptr inbounds nuw %struct.ChorusContext, ptr %153, i32 0, i32 16
  %155 = load i32, ptr %154, align 8, !tbaa !40
  %156 = icmp slt i32 %152, %155
  br i1 %156, label %157, label %170

157:                                              ; preds = %151
  %158 = load ptr, ptr %5, align 8, !tbaa !22
  %159 = getelementptr inbounds nuw %struct.ChorusContext, ptr %158, i32 0, i32 8
  %160 = load ptr, ptr %159, align 8, !tbaa !37
  %161 = load i32, ptr %7, align 4, !tbaa !36
  %162 = sext i32 %161 to i64
  %163 = getelementptr inbounds float, ptr %160, i64 %162
  %164 = load float, ptr %163, align 4, !tbaa !72
  %165 = load float, ptr %6, align 4, !tbaa !72
  %166 = fadd nsz float %165, %164
  store float %166, ptr %6, align 4, !tbaa !72
  br label %167

167:                                              ; preds = %157
  %168 = load i32, ptr %7, align 4, !tbaa !36
  %169 = add nsw i32 %168, 1
  store i32 %169, ptr %7, align 4, !tbaa !36
  br label %151, !llvm.loop !90

170:                                              ; preds = %151
  %171 = load ptr, ptr %5, align 8, !tbaa !22
  %172 = getelementptr inbounds nuw %struct.ChorusContext, ptr %171, i32 0, i32 1
  %173 = load float, ptr %172, align 8, !tbaa !73
  %174 = load float, ptr %6, align 4, !tbaa !72
  %175 = fmul nsz float %173, %174
  %176 = fpext nsz float %175 to double
  %177 = load ptr, ptr %5, align 8, !tbaa !22
  %178 = getelementptr inbounds nuw %struct.ChorusContext, ptr %177, i32 0, i32 2
  %179 = load float, ptr %178, align 4, !tbaa !77
  %180 = fpext nsz float %179 to double
  %181 = fdiv nsz double 1.000000e+00, %180
  %182 = fcmp nsz ogt double %176, %181
  br i1 %182, label %183, label %185

183:                                              ; preds = %170
  %184 = load ptr, ptr %4, align 8, !tbaa !4
  call void (ptr, i32, ptr, ...) @av_log(ptr noundef %184, i32 noundef 24, ptr noundef @.str.3)
  br label %185

185:                                              ; preds = %183, %170
  %186 = load ptr, ptr %3, align 8, !tbaa !50
  %187 = getelementptr inbounds nuw %struct.AVFilterLink, ptr %186, i32 0, i32 12
  %188 = getelementptr inbounds nuw %struct.AVChannelLayout, ptr %187, i32 0, i32 1
  %189 = load i32, ptr %188, align 4, !tbaa !67
  %190 = sext i32 %189 to i64
  %191 = call noalias ptr @av_calloc(i64 noundef %190, i64 noundef 4)
  %192 = load ptr, ptr %5, align 8, !tbaa !22
  %193 = getelementptr inbounds nuw %struct.ChorusContext, ptr %192, i32 0, i32 15
  store ptr %191, ptr %193, align 8, !tbaa !75
  %194 = load ptr, ptr %5, align 8, !tbaa !22
  %195 = getelementptr inbounds nuw %struct.ChorusContext, ptr %194, i32 0, i32 15
  %196 = load ptr, ptr %195, align 8, !tbaa !75
  %197 = icmp ne ptr %196, null
  br i1 %197, label %199, label %198

198:                                              ; preds = %185
  store i32 -12, ptr %2, align 4
  store i32 1, ptr %10, align 4
  br label %265

199:                                              ; preds = %185
  %200 = load ptr, ptr %3, align 8, !tbaa !50
  %201 = getelementptr inbounds nuw %struct.AVFilterLink, ptr %200, i32 0, i32 12
  %202 = getelementptr inbounds nuw %struct.AVChannelLayout, ptr %201, i32 0, i32 1
  %203 = load i32, ptr %202, align 4, !tbaa !67
  %204 = sext i32 %203 to i64
  %205 = call noalias ptr @av_calloc(i64 noundef %204, i64 noundef 8)
  %206 = load ptr, ptr %5, align 8, !tbaa !22
  %207 = getelementptr inbounds nuw %struct.ChorusContext, ptr %206, i32 0, i32 12
  store ptr %205, ptr %207, align 8, !tbaa !45
  %208 = load ptr, ptr %5, align 8, !tbaa !22
  %209 = getelementptr inbounds nuw %struct.ChorusContext, ptr %208, i32 0, i32 12
  %210 = load ptr, ptr %209, align 8, !tbaa !45
  %211 = icmp ne ptr %210, null
  br i1 %211, label %213, label %212

212:                                              ; preds = %199
  store i32 -12, ptr %2, align 4
  store i32 1, ptr %10, align 4
  br label %265

213:                                              ; preds = %199
  store i32 0, ptr %7, align 4, !tbaa !36
  br label %214

214:                                              ; preds = %243, %213
  %215 = load i32, ptr %7, align 4, !tbaa !36
  %216 = load ptr, ptr %3, align 8, !tbaa !50
  %217 = getelementptr inbounds nuw %struct.AVFilterLink, ptr %216, i32 0, i32 12
  %218 = getelementptr inbounds nuw %struct.AVChannelLayout, ptr %217, i32 0, i32 1
  %219 = load i32, ptr %218, align 4, !tbaa !67
  %220 = icmp slt i32 %215, %219
  br i1 %220, label %221, label %246

221:                                              ; preds = %214
  %222 = load ptr, ptr %5, align 8, !tbaa !22
  %223 = getelementptr inbounds nuw %struct.ChorusContext, ptr %222, i32 0, i32 16
  %224 = load i32, ptr %223, align 8, !tbaa !40
  %225 = sext i32 %224 to i64
  %226 = call noalias ptr @av_calloc(i64 noundef %225, i64 noundef 4)
  %227 = load ptr, ptr %5, align 8, !tbaa !22
  %228 = getelementptr inbounds nuw %struct.ChorusContext, ptr %227, i32 0, i32 12
  %229 = load ptr, ptr %228, align 8, !tbaa !45
  %230 = load i32, ptr %7, align 4, !tbaa !36
  %231 = sext i32 %230 to i64
  %232 = getelementptr inbounds ptr, ptr %229, i64 %231
  store ptr %226, ptr %232, align 8, !tbaa !71
  %233 = load ptr, ptr %5, align 8, !tbaa !22
  %234 = getelementptr inbounds nuw %struct.ChorusContext, ptr %233, i32 0, i32 12
  %235 = load ptr, ptr %234, align 8, !tbaa !45
  %236 = load i32, ptr %7, align 4, !tbaa !36
  %237 = sext i32 %236 to i64
  %238 = getelementptr inbounds ptr, ptr %235, i64 %237
  %239 = load ptr, ptr %238, align 8, !tbaa !71
  %240 = icmp ne ptr %239, null
  br i1 %240, label %242, label %241

241:                                              ; preds = %221
  store i32 -12, ptr %2, align 4
  store i32 1, ptr %10, align 4
  br label %265

242:                                              ; preds = %221
  br label %243

243:                                              ; preds = %242
  %244 = load i32, ptr %7, align 4, !tbaa !36
  %245 = add nsw i32 %244, 1
  store i32 %245, ptr %7, align 4, !tbaa !36
  br label %214, !llvm.loop !91

246:                                              ; preds = %214
  %247 = load ptr, ptr %5, align 8, !tbaa !22
  %248 = getelementptr inbounds nuw %struct.ChorusContext, ptr %247, i32 0, i32 17
  %249 = load i32, ptr %248, align 4, !tbaa !74
  %250 = load ptr, ptr %5, align 8, !tbaa !22
  %251 = getelementptr inbounds nuw %struct.ChorusContext, ptr %250, i32 0, i32 20
  store i32 %249, ptr %251, align 8, !tbaa !87
  %252 = load ptr, ptr %5, align 8, !tbaa !22
  %253 = getelementptr inbounds nuw %struct.ChorusContext, ptr %252, i32 0, i32 11
  %254 = load ptr, ptr %3, align 8, !tbaa !50
  %255 = getelementptr inbounds nuw %struct.AVFilterLink, ptr %254, i32 0, i32 12
  %256 = getelementptr inbounds nuw %struct.AVChannelLayout, ptr %255, i32 0, i32 1
  %257 = load i32, ptr %256, align 4, !tbaa !67
  %258 = load ptr, ptr %5, align 8, !tbaa !22
  %259 = getelementptr inbounds nuw %struct.ChorusContext, ptr %258, i32 0, i32 17
  %260 = load i32, ptr %259, align 4, !tbaa !74
  %261 = load ptr, ptr %3, align 8, !tbaa !50
  %262 = getelementptr inbounds nuw %struct.AVFilterLink, ptr %261, i32 0, i32 5
  %263 = load i32, ptr %262, align 4, !tbaa !92
  %264 = call i32 @av_samples_alloc_array_and_samples(ptr noundef %253, ptr noundef null, i32 noundef %257, i32 noundef %260, i32 noundef %263, i32 noundef 0)
  store i32 %264, ptr %2, align 4
  store i32 1, ptr %10, align 4
  br label %265

265:                                              ; preds = %246, %241, %212, %198, %144
  call void @llvm.lifetime.end.p0(i64 4, ptr %7) #7
  call void @llvm.lifetime.end.p0(i64 4, ptr %6) #7
  call void @llvm.lifetime.end.p0(i64 8, ptr %5) #7
  call void @llvm.lifetime.end.p0(i64 8, ptr %4) #7
  %266 = load i32, ptr %2, align 4
  ret i32 %266
}