; Function Attrs: nounwind uwtable
define internal i32 @config_output(ptr noundef readonly captures(none) %0) #1 {
  %2 = load ptr, ptr %0, align 8, !tbaa !81
  %3 = getelementptr inbounds nuw i8, ptr %2, i64 72
  %4 = load ptr, ptr %3, align 8, !tbaa !4
  %5 = getelementptr inbounds nuw i8, ptr %0, i64 76
  %6 = load i32, ptr %5, align 4, !tbaa !66
  %7 = getelementptr inbounds nuw i8, ptr %4, i64 128
  store i32 %6, ptr %7, align 8, !tbaa !45
  %8 = getelementptr inbounds nuw i8, ptr %4, i64 120
  %9 = load i32, ptr %8, align 8, !tbaa !39
  %10 = icmp sgt i32 %9, 0
  br i1 %10, label %.lr.ph, label %._crit_edge

.lr.ph:                                           ; preds = %1
  %11 = getelementptr inbounds nuw i8, ptr %4, i64 48
  %12 = getelementptr inbounds nuw i8, ptr %4, i64 72
  %13 = getelementptr inbounds nuw i8, ptr %0, i64 64
  %14 = getelementptr inbounds nuw i8, ptr %4, i64 64
  %15 = getelementptr inbounds nuw i8, ptr %4, i64 96
  %16 = getelementptr inbounds nuw i8, ptr %4, i64 104
  %17 = getelementptr inbounds nuw i8, ptr %4, i64 124
  br label %21

.preheader78:                                     ; preds = %42
  %18 = icmp sgt i32 %57, 0
  br i1 %18, label %.lr.ph88, label %._crit_edge

.lr.ph88:                                         ; preds = %.preheader78
  %19 = getelementptr inbounds nuw i8, ptr %4, i64 56
  %20 = load ptr, ptr %19, align 8, !tbaa !35
  %wide.trip.count = zext nneg i32 %57 to i64
  br label %60

21:                                               ; preds = %.lr.ph, %42
  %indvars.iv = phi i64 [ 0, %.lr.ph ], [ %indvars.iv.next, %42 ]
  %22 = load ptr, ptr %11, align 8, !tbaa !34
  %23 = getelementptr inbounds nuw float, ptr %22, i64 %indvars.iv
  %24 = load float, ptr %23, align 4, !tbaa !71
  %25 = load ptr, ptr %12, align 8, !tbaa !37
  %26 = getelementptr inbounds nuw float, ptr %25, i64 %indvars.iv
  %27 = load float, ptr %26, align 4, !tbaa !71
  %28 = load i32, ptr %13, align 8, !tbaa !80
  %29 = sitofp i32 %28 to float
  %30 = load ptr, ptr %14, align 8, !tbaa !36
  %31 = getelementptr inbounds nuw float, ptr %30, i64 %indvars.iv
  %32 = load float, ptr %31, align 4, !tbaa !71
  %33 = fdiv nsz float %29, %32
  %34 = fptosi float %33 to i32
  %35 = load ptr, ptr %15, align 8, !tbaa !40
  %36 = getelementptr inbounds nuw i32, ptr %35, i64 %indvars.iv
  store i32 %34, ptr %36, align 4, !tbaa !38
  %37 = sext i32 %34 to i64
  %38 = shl nsw i64 %37, 2
  %39 = tail call noalias ptr @av_malloc(i64 noundef %38) #8
  %40 = load ptr, ptr %16, align 8, !tbaa !41
  %41 = getelementptr inbounds nuw ptr, ptr %40, i64 %indvars.iv
  store ptr %39, ptr %41, align 8, !tbaa !69
  %.not77.not = icmp eq ptr %39, null
  br i1 %.not77.not, label %.critedge, label %42

42:                                               ; preds = %21
  %43 = fadd nsz float %24, %27
  %44 = fmul nsz float %43, %29
  %45 = fpext nsz float %44 to double
  %46 = fdiv nsz double %45, 1.000000e+03
  %47 = fptosi double %46 to i32
  %48 = fmul nsz float %27, %29
  %49 = fpext nsz float %48 to double
  %50 = fdiv nsz double %49, 1.000000e+03
  %51 = fptosi double %50 to i32
  %52 = load ptr, ptr %15, align 8, !tbaa !40
  %53 = getelementptr inbounds nuw i32, ptr %52, i64 %indvars.iv
  %54 = load i32, ptr %53, align 4, !tbaa !38
  %55 = sitofp i32 %51 to double
  tail call void @ff_generate_wave_table(i32 noundef 0, i32 noundef 2, ptr noundef nonnull %39, i32 noundef %54, double noundef 0.000000e+00, double noundef %55, double noundef 0.000000e+00) #8
  %56 = load i32, ptr %17, align 4, !tbaa !73
  %. = tail call i32 @llvm.smax.i32(i32 %56, i32 %47)
  store i32 %., ptr %17, align 4, !tbaa !73
  %indvars.iv.next = add nuw nsw i64 %indvars.iv, 1
  %57 = load i32, ptr %8, align 8, !tbaa !39
  %58 = sext i32 %57 to i64
  %59 = icmp slt i64 %indvars.iv.next, %58
  br i1 %59, label %21, label %.preheader78, !llvm.loop !86

60:                                               ; preds = %.lr.ph88, %60
  %indvars.iv99 = phi i64 [ 0, %.lr.ph88 ], [ %indvars.iv.next100, %60 ]
  %.06887 = phi float [ 1.000000e+00, %.lr.ph88 ], [ %63, %60 ]
  %61 = getelementptr inbounds nuw float, ptr %20, i64 %indvars.iv99
  %62 = load float, ptr %61, align 4, !tbaa !71
  %63 = fadd nsz float %.06887, %62
  %indvars.iv.next100 = add nuw nsw i64 %indvars.iv99, 1
  %exitcond.not = icmp eq i64 %indvars.iv.next100, %wide.trip.count
  br i1 %exitcond.not, label %._crit_edge, label %60, !llvm.loop !87

._crit_edge:                                      ; preds = %60, %1, %.preheader78
  %.068.lcssa = phi float [ 1.000000e+00, %.preheader78 ], [ 1.000000e+00, %1 ], [ %63, %60 ]
  %64 = getelementptr inbounds nuw i8, ptr %4, i64 8
  %65 = load float, ptr %64, align 8, !tbaa !72
  %66 = fmul nsz float %.068.lcssa, %65
  %67 = fpext nsz float %66 to double
  %68 = getelementptr inbounds nuw i8, ptr %4, i64 12
  %69 = load float, ptr %68, align 4, !tbaa !75
  %70 = fpext nsz float %69 to double
  %71 = fdiv nsz double 1.000000e+00, %70
  %72 = fcmp nsz olt double %71, %67
  br i1 %72, label %73, label %74

73:                                               ; preds = %._crit_edge
  tail call void (ptr, i32, ptr, ...) @av_log(ptr noundef %2, i32 noundef 24, ptr noundef nonnull @.str.3) #8
  br label %74

74:                                               ; preds = %73, %._crit_edge
  %75 = load i32, ptr %5, align 4, !tbaa !66
  %76 = sext i32 %75 to i64
  %77 = tail call noalias ptr @av_calloc(i64 noundef %76, i64 noundef 4) #8
  %78 = getelementptr inbounds nuw i8, ptr %4, i64 112
  store ptr %77, ptr %78, align 8, !tbaa !70
  %.not = icmp eq ptr %77, null
  br i1 %.not, label %.critedge, label %79

79:                                               ; preds = %74
  %80 = load i32, ptr %5, align 4, !tbaa !66
  %81 = sext i32 %80 to i64
  %82 = tail call noalias ptr @av_calloc(i64 noundef %81, i64 noundef 8) #8
  %83 = getelementptr inbounds nuw i8, ptr %4, i64 88
  store ptr %82, ptr %83, align 8, !tbaa !44
  %.not75 = icmp eq ptr %82, null
  br i1 %.not75, label %.critedge, label %.preheader

.preheader:                                       ; preds = %79
  %84 = load i32, ptr %5, align 4, !tbaa !66
  %85 = icmp sgt i32 %84, 0
  br i1 %85, label %.lr.ph91, label %._crit_edge92

86:                                               ; preds = %.lr.ph91
  %indvars.iv.next103 = add nuw nsw i64 %indvars.iv102, 1
  %87 = load i32, ptr %5, align 4, !tbaa !66
  %88 = sext i32 %87 to i64
  %89 = icmp slt i64 %indvars.iv.next103, %88
  br i1 %89, label %.lr.ph91, label %._crit_edge92, !llvm.loop !88

.lr.ph91:                                         ; preds = %.preheader, %86
  %indvars.iv102 = phi i64 [ %indvars.iv.next103, %86 ], [ 0, %.preheader ]
  %90 = load i32, ptr %8, align 8, !tbaa !39
  %91 = sext i32 %90 to i64
  %92 = tail call noalias ptr @av_calloc(i64 noundef %91, i64 noundef 4) #8
  %93 = load ptr, ptr %83, align 8, !tbaa !44
  %94 = getelementptr inbounds nuw ptr, ptr %93, i64 %indvars.iv102
  store ptr %92, ptr %94, align 8, !tbaa !69
  %.not76 = icmp eq ptr %92, null
  br i1 %.not76, label %.critedge, label %86

._crit_edge92:                                    ; preds = %86, %.preheader
  %.lcssa = phi i32 [ %84, %.preheader ], [ %87, %86 ]
  %95 = getelementptr inbounds nuw i8, ptr %4, i64 124
  %96 = load i32, ptr %95, align 4, !tbaa !73
  %97 = getelementptr inbounds nuw i8, ptr %4, i64 136
  store i32 %96, ptr %97, align 8, !tbaa !84
  %98 = getelementptr inbounds nuw i8, ptr %4, i64 80
  %99 = getelementptr inbounds nuw i8, ptr %0, i64 36
  %100 = load i32, ptr %99, align 4, !tbaa !89
  %101 = tail call i32 @av_samples_alloc_array_and_samples(ptr noundef nonnull %98, ptr noundef null, i32 noundef %.lcssa, i32 noundef %96, i32 noundef %100, i32 noundef 0) #8
  br label %.critedge

.critedge:                                        ; preds = %21, %.lr.ph91, %79, %74, %._crit_edge92
  %.2 = phi i32 [ %101, %._crit_edge92 ], [ -12, %74 ], [ -12, %79 ], [ -12, %.lr.ph91 ], [ -12, %21 ]
  ret i32 %.2
}